Certificate:
    Data:
        Version: 3 (0x2)
        Serial Number: 6 (0x6)
    Signature Algorithm: sha1WithRSAEncryption
        Issuer: DC=org, DC=mplane, OU=Root-CA, CN=Root-CA-1
        Validity
            Not Before: Jul  9 12:29:38 2015 GMT
            Not After : Jul  8 12:29:38 2017 GMT
        Subject: DC=org, DC=mplane, O=FUB, OU=Reasoner, CN=1
        Subject Public Key Info:
            Public Key Algorithm: rsaEncryption
                Public-Key: (2048 bit)
                Modulus:
                    00:c8:7b:25:08:a7:31:5c:0f:14:46:8f:57:a2:a1:
                    e0:9a:20:a6:5f:81:d0:37:57:d6:83:23:55:b9:31:
                    9f:d7:d9:3f:9a:6f:7a:23:02:24:98:21:33:4c:2a:
                    95:79:82:8f:d9:3b:d1:5a:15:55:ec:56:dd:d7:ca:
                    d3:0e:73:ec:0b:37:48:4a:d1:d6:c7:eb:9a:f4:50:
                    fc:cf:0e:0a:68:a0:a0:29:8a:ef:e5:93:1b:c2:55:
                    8a:4e:87:17:57:30:3a:76:c6:41:f1:b1:e9:2d:18:
                    c4:97:30:6c:83:95:0c:04:5e:d2:9e:2c:49:9e:d4:
                    e2:fe:69:32:c8:6a:13:7e:08:3d:a3:06:2a:63:69:
                    01:f5:d5:32:1f:a2:42:cc:f7:7c:4e:bb:ec:59:ab:
                    9a:01:dd:ae:8e:d1:89:5d:c3:30:0d:0e:80:1c:9b:
                    51:09:32:de:4b:de:c4:e7:d6:c0:e4:2b:23:86:3b:
                    e7:fe:2d:f7:1f:65:62:d1:0b:16:2e:05:52:65:32:
                    f9:a1:e3:ce:6f:be:7f:8a:ab:0d:6d:8b:01:c6:f0:
                    d8:f5:2f:02:a2:a4:c9:cd:a2:5b:58:77:0c:91:0b:
                    ab:8d:cb:bc:3f:15:7d:6a:fe:5d:60:1d:99:41:c8:
                    d3:06:c4:a0:63:ab:11:f4:5d:1e:ad:fc:6f:5f:ec:
                    ad:c5
                Exponent: 65537 (0x10001)
        X509v3 extensions:
            X509v3 Key Usage: critical
                Digital Signature, Key Encipherment
            X509v3 Basic Constraints: 
                CA:FALSE
            X509v3 Extended Key Usage: 
                TLS Web Server Authentication, TLS Web Client Authentication
            X509v3 Subject Key Identifier: 
                48:44:AE:10:EB:52:04:43:81:2F:2B:AF:82:8F:ED:A0:13:A7:FB:CB
            X509v3 Authority Key Identifier: 
                keyid:5B:74:DB:A9:23:6B:AF:29:24:ED:21:13:BE:34:DB:94:CB:24:62:F0

            X509v3 Subject Alternative Name: 
                DNS:Reasoner-1.FUB.mplane.org
    Signature Algorithm: sha1WithRSAEncryption
         03:24:ed:08:10:4f:29:6f:85:53:48:24:9b:24:e8:04:8e:a5:
         09:e1:23:03:21:56:9c:f5:2d:2a:bb:42:d0:b5:c9:9b:c6:2a:
         0e:37:72:21:04:3a:fb:e4:c7:d8:4c:68:54:5d:9d:89:63:25:
         42:5f:39:31:96:16:82:81:d5:90:47:6f:3d:9c:d9:13:50:4c:
         99:55:58:9f:9d:3e:7f:89:0f:79:b5:81:da:8a:40:79:6f:33:
         2c:65:2b:33:9e:ce:41:d9:d3:2a:6c:a4:6f:f7:34:c3:bf:25:
         b2:e2:c6:13:29:38:29:85:42:cd:41:62:83:ec:7e:91:a4:70:
         eb:da:13:73:aa:0e:e1:91:7b:7d:fe:3b:31:75:5f:40:f3:5b:
         f2:52:18:12:73:85:30:93:1f:57:0d:c8:31:17:df:be:ba:b7:
         c0:e3:d2:54:16:94:b3:f1:ac:75:a6:e2:34:e7:27:b6:37:61:
         15:51:d3:97:57:1f:42:6b:97:a6:8f:e8:70:f8:ab:c1:e4:77:
         03:3e:b7:01:d4:90:79:8f:02:d7:cc:4a:3f:a3:1b:d3:52:7b:
         41:32:d0:0b:7f:8b:ee:59:c6:22:37:51:c0:30:d8:b7:62:17:
         f1:d9:7e:89:a1:94:57:c6:67:96:53:a1:76:c6:a3:7c:ff:f9:
         08:06:f1:f2:98:14:29:0a:4c:3d:dd:28:2d:d2:43:7a:32:6a:
         d3:0d:1d:fb:18:9e:f2:af:2e:3a:2e:e7:6b:c4:46:10:c6:88:
         2f:7d:0a:d3:86:45:32:93:7f:32:de:df:3f:56:8b:e2:11:72:
         a3:e2:6a:9b:f6:7f:93:6e:c6:0f:72:28:94:46:a4:e5:fd:b4:
         58:84:1d:01:cd:ff:45:7c:97:a2:00:17:d7:1b:29:e7:9b:39:
         56:33:08:e9:56:23:fe:9a:2c:f8:fc:53:03:53:8f:6f:4e:68:
         a4:d7:ea:ff:02:bc:45:06:f4:95:e5:ba:36:8f:76:d2:04:29:
         4d:2e:1e:e5:94:8c:9d:6b:75:3d:fc:8e:e6:f9:5c:90:1f:cc:
         28:b1:93:3f:11:af:2c:4a:e1:00:81:a9:07:8c:f1:cf:25:fa:
         3d:3b:7f:db:81:cf:f2:94:eb:e1:8a:6d:67:8b:c8:fc:66:8d:
         62:05:cb:f5:03:f0:6d:f2:88:e6:8e:14:1e:ca:2f:50:f3:cc:
         58:95:17:9a:d4:51:7d:ef:71:8c:7e:33:45:84:93:7e:94:98:
         c1:b0:9c:92:59:4e:e4:24:03:fa:7c:3f:93:fc:08:6d:65:ff:
         a0:96:a5:90:9d:d9:0a:11:82:97:59:17:bf:fd:dd:21:54:0e:
         96:92:3e:29:e0:d7:af:1e
-----BEGIN CERTIFICATE-----
MIIEzDCCArSgAwIBAgIBBjANBgkqhkiG9w0BAQUFADBTMRMwEQYKCZImiZPyLGQB
GRYDb3JnMRYwFAYKCZImiZPyLGQBGRYGbXBsYW5lMRAwDgYDVQQLDAdSb290LUNB
MRIwEAYDVQQDDAlSb290LUNBLTEwHhcNMTUwNzA5MTIyOTM4WhcNMTcwNzA4MTIy
OTM4WjBaMRMwEQYKCZImiZPyLGQBGRYDb3JnMRYwFAYKCZImiZPyLGQBGRYGbXBs
YW5lMQwwCgYDVQQKDANGVUIxETAPBgNVBAsMCFJlYXNvbmVyMQowCAYDVQQDDAEx
MIIBIjANBgkqhkiG9w0BAQEFAAOCAQ8AMIIBCgKCAQEAyHslCKcxXA8URo9XoqHg
miCmX4HQN1fWgyNVuTGf19k/mm96IwIkmCEzTCqVeYKP2TvRWhVV7Fbd18rTDnPs
CzdIStHWx+ua9FD8zw4KaKCgKYrv5ZMbwlWKTocXVzA6dsZB8bHpLRjElzBsg5UM
BF7SnixJntTi/mkyyGoTfgg9owYqY2kB9dUyH6JCzPd8TrvsWauaAd2ujtGJXcMw
DQ6AHJtRCTLeS97E59bA5Csjhjvn/i33H2Vi0QsWLgVSZTL5oePOb75/iqsNbYsB
xvDY9S8CoqTJzaJbWHcMkQurjcu8PxV9av5dYB2ZQcjTBsSgY6sR9F0erfxvX+yt
xQIDAQABo4GjMIGgMA4GA1UdDwEB/wQEAwIFoDAJBgNVHRMEAjAAMB0GA1UdJQQW
MBQGCCsGAQUFBwMBBggrBgEFBQcDAjAdBgNVHQ4EFgQUSESuEOtSBEOBLyuvgo/t
oBOn+8swHwYDVR0jBBgwFoAUW3TbqSNrrykk7SETvjTblMskYvAwJAYDVR0RBB0w
G4IZUmVhc29uZXItMS5GVUIubXBsYW5lLm9yZzANBgkqhkiG9w0BAQUFAAOCAgEA
AyTtCBBPKW+FU0gkmyToBI6lCeEjAyFWnPUtKrtC0LXJm8YqDjdyIQQ6++TH2Exo
VF2diWMlQl85MZYWgoHVkEdvPZzZE1BMmVVYn50+f4kPebWB2opAeW8zLGUrM57O
QdnTKmykb/c0w78lsuLGEyk4KYVCzUFig+x+kaRw69oTc6oO4ZF7ff47MXVfQPNb
8lIYEnOFMJMfVw3IMRffvrq3wOPSVBaUs/GsdabiNOcntjdhFVHTl1cfQmuXpo/o
cPirweR3Az63AdSQeY8C18xKP6Mb01J7QTLQC3+L7lnGIjdRwDDYt2IX8dl+iaGU
V8ZnllOhdsajfP/5CAbx8pgUKQpMPd0oLdJDejJq0w0d+xie8q8uOi7na8RGEMaI
L30K04ZFMpN/Mt7fP1aL4hFyo+Jqm/Z/k27GD3IolEak5f20WIQdAc3/RXyXogAX
1xsp55s5VjMI6VYj/pos+PxTA1OPb05opNfq/wK8RQb0leW6No920gQpTS4e5ZSM
nWt1PfyO5vlckB/MKLGTPxGvLErhAIGpB4zxzyX6PTt/24HP8pTr4YptZ4vI/GaN
YgXL9QPwbfKI5o4UHsovUPPMWJUXmtRRfe9xjH4zRYSTfpSYwbCckllO5CQD+nw/
k/wIbWX/oJalkJ3ZChGCl1kXv/3dIVQOlpI+KeDXrx4=
-----END CERTIFICATE-----
