Certificate:
    Data:
        Version: 3 (0x2)
        Serial Number: 5 (0x5)
    Signature Algorithm: sha1WithRSAEncryption
        Issuer: DC=org, DC=mplane, OU=Root-CA, CN=Root-CA-1
        Validity
            Not Before: May  6 09:56:42 2015 GMT
            Not After : May  5 09:56:42 2017 GMT
        Subject: DC=org, DC=mplane, O=FUB, OU=Clients, CN=CI-Client_FUB
        Subject Public Key Info:
            Public Key Algorithm: rsaEncryption
                Public-Key: (2048 bit)
                Modulus:
                    00:b7:8d:da:9e:b9:f0:11:80:2b:af:aa:21:3d:04:
                    7c:c1:24:73:8b:8c:a2:cd:4b:18:6c:9b:fe:4d:69:
                    fb:51:39:51:66:a3:7b:d9:98:19:04:6c:67:5b:ca:
                    92:2a:03:c0:97:72:f2:cb:65:c7:53:ad:ba:a9:3b:
                    b7:03:0b:20:ce:cb:55:d2:3d:aa:db:5f:43:cf:7f:
                    ab:d3:97:4f:4a:e4:10:b1:d7:a5:88:8e:20:16:82:
                    f8:ac:52:a4:ac:a8:59:ee:10:71:c1:9f:72:08:06:
                    05:af:f4:61:fd:df:7b:4a:95:39:a9:11:44:18:96:
                    cb:21:ba:e7:e9:77:92:9d:e1:39:aa:87:6a:93:63:
                    62:5a:b1:30:0a:87:94:59:0a:2d:d1:da:8d:b6:aa:
                    38:f6:ee:2d:ea:f1:f6:0f:f1:39:19:c2:4c:f4:be:
                    1b:71:82:fa:4b:c2:ca:ec:4b:64:c2:e3:0b:1b:ac:
                    85:f3:a3:b9:ec:e6:1a:92:d5:e4:f3:fd:31:34:cd:
                    00:08:5d:b6:b2:31:f3:29:5d:71:76:54:a2:20:b3:
                    93:84:89:5c:84:2e:07:09:4c:25:1e:f5:10:5e:00:
                    7b:72:5d:56:39:d2:c5:de:c3:52:86:2a:31:97:71:
                    3d:0a:15:06:ba:6f:f5:92:7f:d9:f9:e7:d8:6f:16:
                    aa:e3
                Exponent: 65537 (0x10001)
        X509v3 extensions:
            X509v3 Key Usage: critical
                Digital Signature, Key Encipherment
            X509v3 Basic Constraints: 
                CA:FALSE
            X509v3 Extended Key Usage: 
                TLS Web Server Authentication, TLS Web Client Authentication
            X509v3 Subject Key Identifier: 
                E2:EC:03:4E:90:9C:A0:21:98:A5:1B:D0:3D:0B:E4:21:2B:B9:33:2A
            X509v3 Authority Key Identifier: 
                keyid:5B:74:DB:A9:23:6B:AF:29:24:ED:21:13:BE:34:DB:94:CB:24:62:F0

            X509v3 Subject Alternative Name: 
                DNS:Client-1.FUB.mplane.org
    Signature Algorithm: sha1WithRSAEncryption
         82:f3:89:ad:a4:66:8b:4c:4d:4d:b8:9e:d9:37:fb:de:3c:e1:
         72:0b:b9:bc:09:b8:87:32:95:45:ab:c5:68:dd:3b:79:73:f6:
         34:7d:2f:dd:69:9d:b4:58:8b:c5:bc:9c:dc:b4:84:28:71:e3:
         49:f5:64:88:c6:c9:7e:29:69:a8:53:74:13:90:08:61:8b:9a:
         f7:97:c1:8c:07:b8:72:bf:7f:8f:cd:aa:b5:e2:c9:ab:48:a8:
         89:2a:a5:97:ee:72:9e:34:56:67:fd:bf:8e:f1:dd:8b:f0:0b:
         dd:3f:4a:c6:4b:5d:b1:cf:67:b6:06:c0:9b:1e:c6:3c:7c:62:
         78:a3:18:bc:fd:6e:33:4f:cb:68:67:91:b8:2c:76:31:45:d8:
         80:75:32:aa:4a:98:89:0f:c6:22:ca:89:b2:20:a3:96:ac:cf:
         38:82:9f:38:0b:6a:6f:03:9e:87:13:66:8e:59:ff:c2:68:97:
         ca:9f:a7:40:74:21:1f:94:f8:40:2a:40:2e:41:86:5d:81:82:
         9f:0e:2d:3b:d2:d7:74:e8:0d:0b:eb:6d:fb:e2:53:a9:18:2e:
         92:5a:a9:1a:6d:48:e0:96:3d:ac:7f:da:ac:ed:a5:c4:49:a7:
         39:43:84:05:ea:fe:7c:84:41:e6:6f:7a:42:a3:a4:60:1c:22:
         26:b7:02:8d:a3:f3:04:28:0a:39:8d:fa:14:ba:36:c3:50:7d:
         7e:2b:4d:1f:10:c1:4e:1f:be:69:73:a2:70:36:13:ba:20:a1:
         74:10:ed:b4:2c:2c:bd:48:bd:79:8f:77:96:9a:63:f4:b9:2a:
         35:e0:96:d3:84:ff:de:23:ff:2a:11:47:65:4b:9f:dc:ce:d6:
         ec:81:0b:2e:3a:e4:58:ce:de:e1:07:f7:09:51:89:db:f9:41:
         23:ec:57:5c:0a:eb:de:32:57:76:b4:e1:6f:d1:f7:81:0a:71:
         4f:e6:ea:dd:95:be:c0:ab:66:0b:33:44:c3:d9:bd:2c:53:11:
         2c:d4:df:7e:81:8a:43:50:74:21:fc:83:63:8d:98:4f:66:70:
         42:72:39:11:17:02:b1:a9:a7:3a:ec:e6:8b:b0:6a:66:f2:5e:
         2c:db:d6:f4:22:0e:da:dc:2a:f7:e8:a6:e3:6a:61:05:2d:fc:
         60:45:22:db:7f:b5:23:72:25:a7:41:8f:46:96:2f:8b:87:b1:
         7b:ba:9a:b4:6a:94:e9:46:d7:2a:3e:f9:00:4c:25:dd:8a:55:
         eb:4a:58:3f:5f:94:4a:34:2c:94:e7:48:dd:37:c1:25:82:61:
         de:15:ee:78:bf:50:ad:5d:4f:f4:54:fa:ab:40:47:bb:0b:4a:
         c5:36:17:15:3a:09:73:81
-----BEGIN CERTIFICATE-----
MIIE1TCCAr2gAwIBAgIBBTANBgkqhkiG9w0BAQUFADBTMRMwEQYKCZImiZPyLGQB
GRYDb3JnMRYwFAYKCZImiZPyLGQBGRYGbXBsYW5lMRAwDgYDVQQLDAdSb290LUNB
MRIwEAYDVQQDDAlSb290LUNBLTEwHhcNMTUwNTA2MDk1NjQyWhcNMTcwNTA1MDk1
NjQyWjBlMRMwEQYKCZImiZPyLGQBGRYDb3JnMRYwFAYKCZImiZPyLGQBGRYGbXBs
YW5lMQwwCgYDVQQKDANGVUIxEDAOBgNVBAsMB0NsaWVudHMxFjAUBgNVBAMMDUNJ
LUNsaWVudF9GVUIwggEiMA0GCSqGSIb3DQEBAQUAA4IBDwAwggEKAoIBAQC3jdqe
ufARgCuvqiE9BHzBJHOLjKLNSxhsm/5NaftROVFmo3vZmBkEbGdbypIqA8CXcvLL
ZcdTrbqpO7cDCyDOy1XSParbX0PPf6vTl09K5BCx16WIjiAWgvisUqSsqFnuEHHB
n3IIBgWv9GH933tKlTmpEUQYlsshuufpd5Kd4Tmqh2qTY2JasTAKh5RZCi3R2o22
qjj27i3q8fYP8TkZwkz0vhtxgvpLwsrsS2TC4wsbrIXzo7ns5hqS1eTz/TE0zQAI
XbayMfMpXXF2VKIgs5OEiVyELgcJTCUe9RBeAHtyXVY50sXew1KGKjGXcT0KFQa6
b/WSf9n559hvFqrjAgMBAAGjgaEwgZ4wDgYDVR0PAQH/BAQDAgWgMAkGA1UdEwQC
MAAwHQYDVR0lBBYwFAYIKwYBBQUHAwEGCCsGAQUFBwMCMB0GA1UdDgQWBBTi7ANO
kJygIZilG9A9C+QhK7kzKjAfBgNVHSMEGDAWgBRbdNupI2uvKSTtIRO+NNuUyyRi
8DAiBgNVHREEGzAZghdDbGllbnQtMS5GVUIubXBsYW5lLm9yZzANBgkqhkiG9w0B
AQUFAAOCAgEAgvOJraRmi0xNTbie2Tf73jzhcgu5vAm4hzKVRavFaN07eXP2NH0v
3WmdtFiLxbyc3LSEKHHjSfVkiMbJfilpqFN0E5AIYYua95fBjAe4cr9/j82qteLJ
q0ioiSqll+5ynjRWZ/2/jvHdi/AL3T9Kxktdsc9ntgbAmx7GPHxieKMYvP1uM0/L
aGeRuCx2MUXYgHUyqkqYiQ/GIsqJsiCjlqzPOIKfOAtqbwOehxNmjln/wmiXyp+n
QHQhH5T4QCpALkGGXYGCnw4tO9LXdOgNC+tt++JTqRguklqpGm1I4JY9rH/arO2l
xEmnOUOEBer+fIRB5m96QqOkYBwiJrcCjaPzBCgKOY36FLo2w1B9fitNHxDBTh++
aXOicDYTuiChdBDttCwsvUi9eY93lppj9LkqNeCW04T/3iP/KhFHZUuf3M7W7IEL
LjrkWM7e4Qf3CVGJ2/lBI+xXXArr3jJXdrThb9H3gQpxT+bq3ZW+wKtmCzNEw9m9
LFMRLNTffoGKQ1B0IfyDY42YT2ZwQnI5ERcCsamnOuzmi7BqZvJeLNvW9CIO2twq
9+im42phBS38YEUi23+1I3Ilp0GPRpYvi4exe7qatGqU6UbXKj75AEwl3YpV60pY
P1+USjQslOdI3TfBJYJh3hXueL9QrV1P9FT6q0BHuwtKxTYXFToJc4E=
-----END CERTIFICATE-----
