Certificate:
    Data:
        Version: 3 (0x2)
        Serial Number: 12 (0xc)
    Signature Algorithm: sha1WithRSAEncryption
        Issuer: DC=org, DC=mplane, OU=Root-CA, CN=Root-CA-1
        Validity
            Not Before: Apr  3 00:16:29 2015 GMT
            Not After : Apr  2 00:16:29 2017 GMT
        Subject: DC=org, DC=mplane, O=FUB, OU=Agent, CN=mSLAcert_Agent
        Subject Public Key Info:
            Public Key Algorithm: rsaEncryption
                Public-Key: (1024 bit)
                Modulus:
                    00:e6:22:7a:6c:cc:56:23:c6:fe:2c:6e:88:0c:33:
                    98:8e:24:db:66:99:74:6b:43:21:59:a9:c1:9a:48:
                    44:3b:8b:fd:dd:7f:a1:2f:90:ad:84:07:88:70:3e:
                    bf:7f:61:e3:f7:bb:12:af:ae:f7:54:3c:aa:8a:c3:
                    5b:31:24:d6:f1:b1:5c:c2:7f:e2:6b:f9:49:97:fe:
                    03:1d:2f:b4:78:c9:da:da:8e:7e:f6:50:5e:5d:a9:
                    de:b2:67:e9:f4:e5:a8:49:7e:35:d1:3c:98:6a:01:
                    22:a8:04:44:6f:ff:51:51:28:53:c4:c7:76:53:64:
                    2b:2c:f7:be:97:a7:f6:d5:1f
                Exponent: 65537 (0x10001)
        X509v3 extensions:
            X509v3 Key Usage: critical
                Digital Signature, Key Encipherment
            X509v3 Basic Constraints: 
                CA:FALSE
            X509v3 Extended Key Usage: 
                E-mail Protection, TLS Web Client Authentication
            X509v3 Subject Key Identifier: 
                8D:2E:D8:BF:7F:F7:4E:13:9B:6E:9F:36:4F:33:93:26:2A:62:39:0D
            X509v3 Authority Key Identifier: 
                keyid:5B:74:DB:A9:23:6B:AF:29:24:ED:21:13:BE:34:DB:94:CB:24:62:F0

            X509v3 Subject Alternative Name: 
                DNS:Component-1.FUB.mplane.org
    Signature Algorithm: sha1WithRSAEncryption
         4b:bd:16:62:b0:c7:a9:91:4e:6c:85:eb:e7:e2:ca:20:cc:b0:
         48:8f:30:e2:11:77:00:c3:d3:14:80:b4:fa:81:b4:b9:6f:37:
         a8:f4:41:2f:fb:b3:5c:25:a9:82:dc:89:c7:6e:8b:11:b2:d1:
         cc:dc:46:f1:a0:f8:ee:31:ef:25:97:c5:54:31:a3:aa:15:e6:
         1c:5c:0b:b7:12:ae:05:1a:34:12:d9:00:fa:a5:79:ca:de:59:
         4a:d0:bc:a6:54:e1:8c:4d:cd:60:0b:45:74:65:b6:fa:4d:9d:
         22:c9:b9:fd:e7:0f:72:53:72:58:b0:5e:ab:fe:47:c9:6f:d3:
         76:be:1c:18:cb:27:70:59:23:c9:3f:98:b4:fe:36:d4:24:7f:
         5b:5c:c3:8c:14:e7:79:24:77:ea:8a:c9:9f:ce:00:54:49:fe:
         29:cc:06:d6:e9:a7:c2:95:68:27:d3:c3:a0:25:3b:ea:97:73:
         b4:7c:17:a2:6e:c1:e9:a2:4d:9d:e7:e0:16:ec:bb:04:09:d9:
         63:2c:36:17:fe:77:6a:34:e1:0e:44:f6:fd:b4:0c:c3:b9:e2:
         32:ca:8d:b7:a1:5e:31:69:cf:b2:7e:be:be:43:c8:c1:bc:3b:
         17:e5:d1:3a:8d:90:9d:28:0c:ce:b2:42:bb:73:83:fd:c2:36:
         ef:2a:60:ca:17:5d:ec:0e:ee:4d:9d:e7:cc:14:32:c7:c3:5e:
         69:b7:6b:1a:85:c3:7d:ac:93:9c:5c:27:4d:b4:7a:e3:12:dd:
         e9:ce:06:c7:0e:d2:81:6c:e2:32:48:5e:f2:f5:2f:7c:b7:1b:
         8f:d8:1b:77:43:db:53:18:e9:0a:c2:48:6d:ed:36:c8:84:7e:
         bd:9f:e9:32:2d:e9:a8:50:97:00:7c:6a:15:ee:71:e6:04:11:
         c0:bc:d1:79:01:24:f9:6e:15:6d:81:0b:ab:d8:1d:c6:21:10:
         d3:15:89:d7:df:9c:3f:68:0c:f3:4c:a7:ad:8b:86:f7:b8:31:
         bb:9c:67:28:c6:1f:08:ae:07:17:fe:2f:fd:ea:47:a8:c6:6f:
         95:26:ec:de:b4:64:7e:d6:23:45:5b:17:c1:a5:00:0a:cd:ad:
         4c:62:69:22:6e:b6:7a:7f:51:d6:3f:ed:4d:13:be:2d:3a:2c:
         bf:5e:4f:21:f2:9e:ca:80:9d:37:6b:ef:f0:3b:63:cd:85:e6:
         70:51:ee:26:3f:bb:da:76:3b:47:7d:d4:e3:3a:82:92:56:58:
         b3:7a:99:f9:8f:05:73:84:2e:86:1f:23:fb:d8:e7:8c:15:92:
         cd:04:27:1b:d9:eb:10:0a:56:aa:e8:b3:50:34:5c:c0:c8:6d:
         90:49:66:f8:cf:0d:1b:93
-----BEGIN CERTIFICATE-----
MIIEUzCCAjugAwIBAgIBDDANBgkqhkiG9w0BAQUFADBTMRMwEQYKCZImiZPyLGQB
GRYDb3JnMRYwFAYKCZImiZPyLGQBGRYGbXBsYW5lMRAwDgYDVQQLDAdSb290LUNB
MRIwEAYDVQQDDAlSb290LUNBLTEwHhcNMTUwNDAzMDAxNjI5WhcNMTcwNDAyMDAx
NjI5WjBkMRMwEQYKCZImiZPyLGQBGRYDb3JnMRYwFAYKCZImiZPyLGQBGRYGbXBs
YW5lMQwwCgYDVQQKDANGVUIxDjAMBgNVBAsMBUFnZW50MRcwFQYDVQQDDA5tU0xB
Y2VydF9BZ2VudDCBnzANBgkqhkiG9w0BAQEFAAOBjQAwgYkCgYEA5iJ6bMxWI8b+
LG6IDDOYjiTbZpl0a0MhWanBmkhEO4v93X+hL5CthAeIcD6/f2Hj97sSr673VDyq
isNbMSTW8bFcwn/ia/lJl/4DHS+0eMna2o5+9lBeXanesmfp9OWoSX410TyYagEi
qAREb/9RUShTxMd2U2QrLPe+l6f21R8CAwEAAaOBpDCBoTAOBgNVHQ8BAf8EBAMC
BaAwCQYDVR0TBAIwADAdBgNVHSUEFjAUBggrBgEFBQcDBAYIKwYBBQUHAwIwHQYD
VR0OBBYEFI0u2L9/904Tm26fNk8zkyYqYjkNMB8GA1UdIwQYMBaAFFt026kja68p
JO0hE74025TLJGLwMCUGA1UdEQQeMByCGkNvbXBvbmVudC0xLkZVQi5tcGxhbmUu
b3JnMA0GCSqGSIb3DQEBBQUAA4ICAQBLvRZisMepkU5shevn4sogzLBIjzDiEXcA
w9MUgLT6gbS5bzeo9EEv+7NcJamC3InHbosRstHM3EbxoPjuMe8ll8VUMaOqFeYc
XAu3Eq4FGjQS2QD6pXnK3llK0LymVOGMTc1gC0V0Zbb6TZ0iybn95w9yU3JYsF6r
/kfJb9N2vhwYyydwWSPJP5i0/jbUJH9bXMOMFOd5JHfqismfzgBUSf4pzAbW6afC
lWgn08OgJTvql3O0fBeibsHpok2d5+AW7LsECdljLDYX/ndqNOEORPb9tAzDueIy
yo23oV4xac+yfr6+Q8jBvDsX5dE6jZCdKAzOskK7c4P9wjbvKmDKF13sDu5NnefM
FDLHw15pt2sahcN9rJOcXCdNtHrjEt3pzgbHDtKBbOIySF7y9S98txuP2Bt3Q9tT
GOkKwkht7TbIhH69n+kyLemoUJcAfGoV7nHmBBHAvNF5AST5bhVtgQur2B3GIRDT
FYnX35w/aAzzTKeti4b3uDG7nGcoxh8IrgcX/i/96keoxm+VJuzetGR+1iNFWxfB
pQAKza1MYmkibrZ6f1HWP+1NE74tOiy/Xk8h8p7KgJ03a+/wO2PNheZwUe4mP7va
djtHfdTjOoKSVlizepn5jwVzhC6GHyP72OeMFZLNBCcb2esQClaq6LNQNFzAyG2Q
SWb4zw0bkw==
-----END CERTIFICATE-----
