Certificate:
    Data:
        Version: 3 (0x2)
        Serial Number: 11 (0xb)
    Signature Algorithm: sha1WithRSAEncryption
        Issuer: DC=org, DC=mplane, OU=Root-CA, CN=Root-CA-1
        Validity
            Not Before: Apr  3 00:12:55 2015 GMT
            Not After : Apr  2 00:12:55 2017 GMT
        Subject: DC=org, DC=mplane, O=FUB, OU=Components, CN=mSLAcert_server
        Subject Public Key Info:
            Public Key Algorithm: rsaEncryption
                Public-Key: (1024 bit)
                Modulus:
                    00:c8:0f:bb:0f:af:09:25:ae:d0:a1:37:95:ee:dc:
                    35:21:2f:b4:d9:e0:13:bc:c7:1c:30:f8:2d:03:5e:
                    65:dc:37:6e:2f:33:85:d8:cf:57:6a:57:6a:27:b7:
                    82:c5:9b:24:0e:81:b0:7c:8b:eb:10:ab:f5:fc:76:
                    95:5f:26:ac:cc:93:d8:61:dc:8d:3f:e1:47:55:87:
                    5d:e2:c1:7d:3c:84:51:07:2f:20:22:3a:2e:40:0c:
                    65:51:5a:a6:bf:c4:b0:60:c5:7a:54:3e:c1:a9:0b:
                    43:5f:4f:f2:60:21:eb:73:6a:9b:89:a6:96:5c:4f:
                    c8:e5:01:46:f5:7d:6d:8c:7b
                Exponent: 65537 (0x10001)
        X509v3 extensions:
            X509v3 Key Usage: critical
                Digital Signature, Key Encipherment
            X509v3 Basic Constraints: 
                CA:FALSE
            X509v3 Extended Key Usage: 
                E-mail Protection, TLS Web Client Authentication
            X509v3 Subject Key Identifier: 
                E4:CF:1B:C2:53:0E:E4:C5:4A:E8:17:B2:60:D9:10:7B:EA:D7:12:F3
            X509v3 Authority Key Identifier: 
                keyid:5B:74:DB:A9:23:6B:AF:29:24:ED:21:13:BE:34:DB:94:CB:24:62:F0

            X509v3 Subject Alternative Name: 
                DNS:Component-1.FUB.mplane.org
    Signature Algorithm: sha1WithRSAEncryption
         04:c1:67:9a:b7:e4:bf:ee:5a:ce:fb:ae:75:d0:60:9f:b1:bc:
         6a:1b:9e:af:6e:9e:cb:2e:85:30:c7:50:54:48:c0:bb:9d:6e:
         d5:5b:a1:d3:fc:58:27:da:5c:11:9c:92:bb:9f:5b:85:d4:ca:
         59:44:21:8f:ec:05:b0:6a:90:7f:2f:d9:ff:0e:d9:35:b9:99:
         16:1d:78:0d:87:e1:76:3b:61:0c:ec:91:6f:d5:8f:b8:65:53:
         0e:ec:a2:3b:43:c1:54:d0:e7:45:cc:82:cc:88:dc:31:11:3a:
         95:96:42:7e:e4:ce:d7:36:e7:1b:97:fa:14:f8:7a:0a:d3:be:
         a7:1b:6b:f2:a3:44:5a:72:4c:dd:bd:8f:b0:2b:e7:f7:57:53:
         03:6b:e3:fe:ee:f6:e6:26:cd:47:0b:db:b6:ad:cc:69:c3:e0:
         11:3a:1d:c0:71:ef:84:79:e3:c3:32:c0:0b:57:14:ba:af:f0:
         36:e9:1a:83:2e:24:06:f5:af:c5:09:1c:b0:0c:89:62:25:fb:
         7a:a3:db:c5:9c:86:cb:c5:ff:24:65:2b:7e:e5:50:b7:2f:60:
         1d:80:86:fb:72:f4:63:9b:41:ba:46:db:88:78:b6:20:a6:97:
         dc:98:f0:81:a7:80:3d:76:d7:9d:63:a0:c6:06:9a:17:13:d3:
         2d:fa:d6:90:66:c7:77:56:ed:fb:eb:71:01:3d:ff:37:72:f6:
         f8:f3:a1:c4:a3:43:31:5b:c0:c8:b6:cd:5b:a2:0b:80:49:3e:
         c6:66:63:e3:57:ad:ce:55:d2:32:a7:fb:83:e4:74:5b:91:9d:
         5d:32:2d:8c:10:5b:6a:0f:11:12:60:37:0d:b7:93:0c:78:f9:
         38:6c:20:62:e5:20:e2:52:80:a7:16:f0:1a:06:ba:00:48:2a:
         36:09:20:cc:71:21:30:cd:3d:45:e7:b5:75:f9:e8:46:f4:d5:
         f5:2d:d5:6d:52:9a:d4:6f:24:e7:f8:f3:30:bb:2b:0c:11:b6:
         47:1a:ad:70:03:d2:13:27:70:88:be:10:68:34:f5:09:31:e0:
         a5:f3:52:20:2a:58:6e:75:7a:5c:5c:ac:33:56:7b:24:7e:48:
         7a:03:76:e1:84:3c:7c:f1:e8:79:be:29:3d:d3:26:83:24:b4:
         f6:b6:81:a1:b6:f6:50:f5:b1:b9:93:8d:60:d6:a2:f0:74:40:
         dd:4a:9c:24:4e:14:09:3a:a2:cf:9d:59:cc:6d:fa:73:27:e3:
         a1:32:b9:8c:32:0b:8f:5d:49:48:62:88:eb:d5:7f:23:c2:2a:
         91:13:23:93:28:db:7e:eb:a1:8b:b6:3d:8d:6f:a2:31:df:2c:
         07:74:0c:43:ff:6c:f2:ff
-----BEGIN CERTIFICATE-----
MIIEWTCCAkGgAwIBAgIBCzANBgkqhkiG9w0BAQUFADBTMRMwEQYKCZImiZPyLGQB
GRYDb3JnMRYwFAYKCZImiZPyLGQBGRYGbXBsYW5lMRAwDgYDVQQLDAdSb290LUNB
MRIwEAYDVQQDDAlSb290LUNBLTEwHhcNMTUwNDAzMDAxMjU1WhcNMTcwNDAyMDAx
MjU1WjBqMRMwEQYKCZImiZPyLGQBGRYDb3JnMRYwFAYKCZImiZPyLGQBGRYGbXBs
YW5lMQwwCgYDVQQKDANGVUIxEzARBgNVBAsMCkNvbXBvbmVudHMxGDAWBgNVBAMM
D21TTEFjZXJ0X3NlcnZlcjCBnzANBgkqhkiG9w0BAQEFAAOBjQAwgYkCgYEAyA+7
D68JJa7QoTeV7tw1IS+02eATvMccMPgtA15l3DduLzOF2M9XaldqJ7eCxZskDoGw
fIvrEKv1/HaVXyaszJPYYdyNP+FHVYdd4sF9PIRRBy8gIjouQAxlUVqmv8SwYMV6
VD7BqQtDX0/yYCHrc2qbiaaWXE/I5QFG9X1tjHsCAwEAAaOBpDCBoTAOBgNVHQ8B
Af8EBAMCBaAwCQYDVR0TBAIwADAdBgNVHSUEFjAUBggrBgEFBQcDBAYIKwYBBQUH
AwIwHQYDVR0OBBYEFOTPG8JTDuTFSugXsmDZEHvq1xLzMB8GA1UdIwQYMBaAFFt0
26kja68pJO0hE74025TLJGLwMCUGA1UdEQQeMByCGkNvbXBvbmVudC0xLkZVQi5t
cGxhbmUub3JnMA0GCSqGSIb3DQEBBQUAA4ICAQAEwWeat+S/7lrO+6510GCfsbxq
G56vbp7LLoUwx1BUSMC7nW7VW6HT/Fgn2lwRnJK7n1uF1MpZRCGP7AWwapB/L9n/
Dtk1uZkWHXgNh+F2O2EM7JFv1Y+4ZVMO7KI7Q8FU0OdFzILMiNwxETqVlkJ+5M7X
Nucbl/oU+HoK076nG2vyo0RackzdvY+wK+f3V1MDa+P+7vbmJs1HC9u2rcxpw+AR
Oh3Ace+EeePDMsALVxS6r/A26RqDLiQG9a/FCRywDIliJft6o9vFnIbLxf8kZSt+
5VC3L2AdgIb7cvRjm0G6RtuIeLYgppfcmPCBp4A9dtedY6DGBpoXE9Mt+taQZsd3
Vu3763EBPf83cvb486HEo0MxW8DIts1boguAST7GZmPjV63OVdIyp/uD5HRbkZ1d
Mi2MEFtqDxESYDcNt5MMePk4bCBi5SDiUoCnFvAaBroASCo2CSDMcSEwzT1F57V1
+ehG9NX1LdVtUprUbyTn+PMwuysMEbZHGq1wA9ITJ3CIvhBoNPUJMeCl81IgKlhu
dXpcXKwzVnskfkh6A3bhhDx88eh5vik90yaDJLT2toGhtvZQ9bG5k41g1qLwdEDd
SpwkThQJOqLPnVnMbfpzJ+OhMrmMMguPXUlIYojr1X8jwiqREyOTKNt+66GLtj2N
b6Ix3ywHdAxD/2zy/w==
-----END CERTIFICATE-----
